; Function Attrs: nounwind uwtable
define i32 @Wlc_NtkDupOneObject(ptr noundef %0, ptr noundef %1, ptr noundef %2, i32 noundef %3, ptr noundef %4) local_unnamed_addr #0 {
  %6 = getelementptr i8, ptr %1, i64 640
  %.val26 = load ptr, ptr %6, align 8, !tbaa !11
  %7 = ptrtoint ptr %2 to i64
  %8 = ptrtoint ptr %.val26 to i64
  %9 = sub i64 %7, %8
  %10 = sdiv exact i64 %9, 24
  %11 = trunc i64 %10 to i32
  %12 = load i16, ptr %2, align 8
  %13 = and i16 %12, 63
  %14 = getelementptr i8, ptr %2, i64 4
  %.val23 = load i32, ptr %14, align 4, !tbaa !20
  %15 = getelementptr i8, ptr %1, i64 760
  %.val = load ptr, ptr %15, align 8, !tbaa !3
  %sext = shl i64 %10, 32
  %16 = ashr exact i64 %sext, 32
  %17 = getelementptr inbounds i32, ptr %.val, i64 %16
  %18 = load i32, ptr %17, align 4, !tbaa !10
  %19 = trunc i32 %3 to i16
  %20 = and i16 %19, 63
  %21 = and i16 %12, -64
  %22 = or disjoint i16 %21, %20
  store i16 %22, ptr %2, align 8
  store i32 0, ptr %14, align 4, !tbaa !20
  %23 = tail call i32 @Wlc_ObjDup(ptr noundef %0, ptr noundef %1, i32 noundef %11, ptr noundef %4) #26
  %24 = load i16, ptr %2, align 8
  %25 = and i16 %24, -64
  %26 = or disjoint i16 %25, %13
  store i16 %26, ptr %2, align 8
  store i32 %.val23, ptr %14, align 4, !tbaa !20
  %27 = icmp eq i32 %3, 3
  br i1 %27, label %28, label %68

28:                                               ; preds = %5
  %29 = getelementptr inbounds nuw i8, ptr %0, i64 120
  %30 = load ptr, ptr %29, align 8, !tbaa !42
  %31 = getelementptr i8, ptr %2, i64 8
  %.val24 = load i32, ptr %31, align 8, !tbaa !27
  %32 = getelementptr i8, ptr %2, i64 12
  %.val25 = load i32, ptr %32, align 4, !tbaa !28
  %33 = sub nsw i32 %.val24, %.val25
  %34 = tail call i32 @llvm.abs.i32(i32 %33, i1 true)
  %35 = xor i32 %34, -1
  %36 = getelementptr inbounds nuw i8, ptr %30, i64 4
  %37 = load i32, ptr %36, align 4, !tbaa !26
  %38 = load i32, ptr %30, align 8, !tbaa !25
  %39 = icmp eq i32 %37, %38
  br i1 %39, label %40, label %.Vec_IntGrow.exit10_crit_edge.i

.Vec_IntGrow.exit10_crit_edge.i:                  ; preds = %28
  %.phi.trans.insert.i = getelementptr inbounds nuw i8, ptr %30, i64 8
  %.pre.i = load ptr, ptr %.phi.trans.insert.i, align 8, !tbaa !3
  br label %Vec_IntPush.exit

40:                                               ; preds = %28
  %41 = icmp slt i32 %37, 16
  br i1 %41, label %42, label %50

42:                                               ; preds = %40
  %43 = getelementptr inbounds nuw i8, ptr %30, i64 8
  %44 = load ptr, ptr %43, align 8, !tbaa !3
  %.not9.i.i = icmp eq ptr %44, null
  br i1 %.not9.i.i, label %47, label %45

45:                                               ; preds = %42
  %46 = tail call dereferenceable_or_null(64) ptr @realloc(ptr noundef nonnull %44, i64 noundef 64) #27
  br label %Vec_IntGrow.exit.i

47:                                               ; preds = %42
  %48 = tail call noalias dereferenceable_or_null(64) ptr @malloc(i64 noundef 64) #25
  br label %Vec_IntGrow.exit.i

Vec_IntGrow.exit.i:                               ; preds = %47, %45
  %49 = phi ptr [ %46, %45 ], [ %48, %47 ]
  store ptr %49, ptr %43, align 8, !tbaa !3
  store i32 16, ptr %30, align 8, !tbaa !25
  br label %Vec_IntPush.exit

50:                                               ; preds = %40
  %51 = shl nuw nsw i32 %37, 1
  %52 = getelementptr inbounds nuw i8, ptr %30, i64 8
  %53 = load ptr, ptr %52, align 8, !tbaa !3
  %.not9.i9.i = icmp eq ptr %53, null
  %54 = zext nneg i32 %51 to i64
  %55 = shl nuw nsw i64 %54, 2
  br i1 %.not9.i9.i, label %58, label %56

56:                                               ; preds = %50
  %57 = tail call ptr @realloc(ptr noundef nonnull %53, i64 noundef %55) #27
  br label %60

58:                                               ; preds = %50
  %59 = tail call noalias ptr @malloc(i64 noundef %55) #25
  br label %60

60:                                               ; preds = %58, %56
  %61 = phi ptr [ %57, %56 ], [ %59, %58 ]
  store ptr %61, ptr %52, align 8, !tbaa !3
  store i32 %51, ptr %30, align 8, !tbaa !25
  br label %Vec_IntPush.exit

Vec_IntPush.exit:                                 ; preds = %.Vec_IntGrow.exit10_crit_edge.i, %Vec_IntGrow.exit.i, %60
  %62 = phi ptr [ %.pre.i, %.Vec_IntGrow.exit10_crit_edge.i ], [ %61, %60 ], [ %49, %Vec_IntGrow.exit.i ]
  %63 = load i32, ptr %36, align 4, !tbaa !26
  %64 = add nsw i32 %63, 1
  store i32 %64, ptr %36, align 4, !tbaa !26
  %65 = sext i32 %63 to i64
  %66 = getelementptr inbounds i32, ptr %62, i64 %65
  store i32 %35, ptr %66, align 4, !tbaa !10
  %.val27 = load ptr, ptr %15, align 8, !tbaa !3
  %67 = getelementptr inbounds i32, ptr %.val27, i64 %16
  store i32 %18, ptr %67, align 4, !tbaa !10
  br label %68

68:                                               ; preds = %Vec_IntPush.exit, %5
  ret i32 %23
}